target datalayout = "e-m:e-p270:32:32-p271:32:32-p272:64:64-i64:64-i128:128-f80:128-n8:16:32:64-S128"
target triple = "x86_64-pc-linux-gnu"

%struct.Vec_Int_t_ = type { i32, i32, ptr }
%struct.Vec_Wrd_t_ = type { i32, i32, ptr }

@.str.34 = private unnamed_addr constant [12 x i8] c"Class%4d : \00", align 1
@.str.35 = private unnamed_addr constant [14 x i8] c"Count =%6d   \00", align 1
@.str.36 = private unnamed_addr constant [2 x i8] c"*\00", align 1
@.str.37 = private unnamed_addr constant [2 x i8] c" \00", align 1

; Function Attrs: inlinehint nounwind uwtable
define internal void @Vec_IntFree(ptr noundef %0) #2 {
  %2 = alloca ptr, align 8
  store ptr %0, ptr %2, align 8, !tbaa !55
  %3 = load ptr, ptr %2, align 8, !tbaa !55
  %4 = getelementptr inbounds nuw %struct.Vec_Int_t_, ptr %3, i32 0, i32 2
  %5 = load ptr, ptr %4, align 8, !tbaa !80
  %6 = icmp ne ptr %5, null
  br i1 %6, label %7, label %13

7:                                                ; preds = %1
  %8 = load ptr, ptr %2, align 8, !tbaa !55
  %9 = getelementptr inbounds nuw %struct.Vec_Int_t_, ptr %8, i32 0, i32 2
  %10 = load ptr, ptr %9, align 8, !tbaa !80
  call void @free(ptr noundef %10) #12
  %11 = load ptr, ptr %2, align 8, !tbaa !55
  %12 = getelementptr inbounds nuw %struct.Vec_Int_t_, ptr %11, i32 0, i32 2
  store ptr null, ptr %12, align 8, !tbaa !80
  br label %14

13:                                               ; preds = %1
  br label %14

14:                                               ; preds = %13, %7
  %15 = load ptr, ptr %2, align 8, !tbaa !55
  %16 = icmp ne ptr %15, null
  br i1 %16, label %17, label %19

17:                                               ; preds = %14
  %18 = load ptr, ptr %2, align 8, !tbaa !55
  call void @free(ptr noundef %18) #12
  store ptr null, ptr %2, align 8, !tbaa !55
  br label %20

19:                                               ; preds = %14
  br label %20

20:                                               ; preds = %19, %17
  ret void
}

; Function Attrs: inlinehint nounwind uwtable
define internal i32 @Abc_MaxInt(i32 noundef %0, i32 noundef %1) #2 {
  %3 = alloca i32, align 4
  %4 = alloca i32, align 4
  store i32 %0, ptr %3, align 4, !tbaa !8
  store i32 %1, ptr %4, align 4, !tbaa !8
  %5 = load i32, ptr %3, align 4, !tbaa !8
  %6 = load i32, ptr %4, align 4, !tbaa !8
  %7 = icmp sgt i32 %5, %6
  br i1 %7, label %8, label %10

8:                                                ; preds = %2
  %9 = load i32, ptr %3, align 4, !tbaa !8
  br label %12

10:                                               ; preds = %2
  %11 = load i32, ptr %4, align 4, !tbaa !8
  br label %12

12:                                               ; preds = %10, %8
  %13 = phi i32 [ %9, %8 ], [ %11, %10 ]
  ret i32 %13
}

; Function Attrs: inlinehint nounwind uwtable
define internal i32 @Vec_IntEntry(ptr noundef %0, i32 noundef %1) #2 {
  %3 = alloca ptr, align 8
  %4 = alloca i32, align 4
  store ptr %0, ptr %3, align 8, !tbaa !55
  store i32 %1, ptr %4, align 4, !tbaa !8
  %5 = load ptr, ptr %3, align 8, !tbaa !55
  %6 = getelementptr inbounds nuw %struct.Vec_Int_t_, ptr %5, i32 0, i32 2
  %7 = load ptr, ptr %6, align 8, !tbaa !80
  %8 = load i32, ptr %4, align 4, !tbaa !8
  %9 = sext i32 %8 to i64
  %10 = getelementptr inbounds i32, ptr %7, i64 %9
  %11 = load i32, ptr %10, align 4, !tbaa !8
  ret i32 %11
}

; Function Attrs: inlinehint nounwind uwtable
define internal i64 @Vec_WrdEntry(ptr noundef %0, i32 noundef %1) #2 {
  %3 = alloca ptr, align 8
  %4 = alloca i32, align 4
  store ptr %0, ptr %3, align 8, !tbaa !145
  store i32 %1, ptr %4, align 4, !tbaa !8
  %5 = load ptr, ptr %3, align 8, !tbaa !145
  %6 = getelementptr inbounds nuw %struct.Vec_Wrd_t_, ptr %5, i32 0, i32 2
  %7 = load ptr, ptr %6, align 8, !tbaa !148
  %8 = load i32, ptr %4, align 4, !tbaa !8
  %9 = sext i32 %8 to i64
  %10 = getelementptr inbounds i64, ptr %7, i64 %9
  %11 = load i64, ptr %10, align 8, !tbaa !61
  ret i64 %11
}

; Function Attrs: inlinehint nounwind uwtable
define internal i32 @Vec_IntFindMax(ptr noundef %0) #2 {
  %2 = alloca i32, align 4
  %3 = alloca ptr, align 8
  %4 = alloca i32, align 4
  %5 = alloca i32, align 4
  %6 = alloca i32, align 4
  store ptr %0, ptr %3, align 8, !tbaa !55
  call void @llvm.lifetime.start.p0(i64 4, ptr %4) #12
  call void @llvm.lifetime.start.p0(i64 4, ptr %5) #12
  %7 = load ptr, ptr %3, align 8, !tbaa !55
  %8 = getelementptr inbounds nuw %struct.Vec_Int_t_, ptr %7, i32 0, i32 1
  %9 = load i32, ptr %8, align 4, !tbaa !78
  %10 = icmp eq i32 %9, 0
  br i1 %10, label %11, label %12

11:                                               ; preds = %1
  store i32 0, ptr %2, align 4
  store i32 1, ptr %6, align 4
  br label %48

12:                                               ; preds = %1
  %13 = load ptr, ptr %3, align 8, !tbaa !55
  %14 = getelementptr inbounds nuw %struct.Vec_Int_t_, ptr %13, i32 0, i32 2
  %15 = load ptr, ptr %14, align 8, !tbaa !80
  %16 = getelementptr inbounds i32, ptr %15, i64 0
  %17 = load i32, ptr %16, align 4, !tbaa !8
  store i32 %17, ptr %5, align 4, !tbaa !8
  store i32 1, ptr %4, align 4, !tbaa !8
  br label %18

18:                                               ; preds = %43, %12
  %19 = load i32, ptr %4, align 4, !tbaa !8
  %20 = load ptr, ptr %3, align 8, !tbaa !55
  %21 = getelementptr inbounds nuw %struct.Vec_Int_t_, ptr %20, i32 0, i32 1
  %22 = load i32, ptr %21, align 4, !tbaa !78
  %23 = icmp slt i32 %19, %22
  br i1 %23, label %24, label %46

24:                                               ; preds = %18
  %25 = load i32, ptr %5, align 4, !tbaa !8
  %26 = load ptr, ptr %3, align 8, !tbaa !55
  %27 = getelementptr inbounds nuw %struct.Vec_Int_t_, ptr %26, i32 0, i32 2
  %28 = load ptr, ptr %27, align 8, !tbaa !80
  %29 = load i32, ptr %4, align 4, !tbaa !8
  %30 = sext i32 %29 to i64
  %31 = getelementptr inbounds i32, ptr %28, i64 %30
  %32 = load i32, ptr %31, align 4, !tbaa !8
  %33 = icmp slt i32 %25, %32
  br i1 %33, label %34, label %42

34:                                               ; preds = %24
  %35 = load ptr, ptr %3, align 8, !tbaa !55
  %36 = getelementptr inbounds nuw %struct.Vec_Int_t_, ptr %35, i32 0, i32 2
  %37 = load ptr, ptr %36, align 8, !tbaa !80
  %38 = load i32, ptr %4, align 4, !tbaa !8
  %39 = sext i32 %38 to i64
  %40 = getelementptr inbounds i32, ptr %37, i64 %39
  %41 = load i32, ptr %40, align 4, !tbaa !8
  store i32 %41, ptr %5, align 4, !tbaa !8
  br label %42

42:                                               ; preds = %34, %24
  br label %43

43:                                               ; preds = %42
  %44 = load i32, ptr %4, align 4, !tbaa !8
  %45 = add nsw i32 %44, 1
  store i32 %45, ptr %4, align 4, !tbaa !8
  br label %18, !llvm.loop !207

46:                                               ; preds = %18
  %47 = load i32, ptr %5, align 4, !tbaa !8
  store i32 %47, ptr %2, align 4
  store i32 1, ptr %6, align 4
  br label %48

48:                                               ; preds = %46, %11
  call void @llvm.lifetime.end.p0(i64 4, ptr %5) #12
  call void @llvm.lifetime.end.p0(i64 4, ptr %4) #12
  %49 = load i32, ptr %2, align 4
  ret i32 %49
}

; Function Attrs: inlinehint nounwind uwtable
define internal i32 @Vec_WrdSize(ptr noundef %0) #2 {
  %2 = alloca ptr, align 8
  store ptr %0, ptr %2, align 8, !tbaa !145
  %3 = load ptr, ptr %2, align 8, !tbaa !145
  %4 = getelementptr inbounds nuw %struct.Vec_Wrd_t_, ptr %3, i32 0, i32 1
  %5 = load i32, ptr %4, align 4, !tbaa !156
  ret i32 %5
}

; Function Attrs: nounwind uwtable
define void @Gia_ManMatchProfileFunctions(ptr noundef %0, ptr noundef %1, ptr noundef %2, ptr noundef %3, i32 noundef %4) #0 {
  %6 = alloca ptr, align 8
  %7 = alloca ptr, align 8
  %8 = alloca ptr, align 8
  %9 = alloca ptr, align 8
  %10 = alloca i32, align 4
  %11 = alloca i32, align 4
  %12 = alloca ptr, align 8
  %13 = alloca i64, align 8
  %14 = alloca i32, align 4
  %15 = alloca i32, align 4
  %16 = alloca i32, align 4
  %17 = alloca i32, align 4
  store ptr %0, ptr %6, align 8, !tbaa !145
  store ptr %1, ptr %7, align 8, !tbaa !85
  store ptr %2, ptr %8, align 8, !tbaa !55
  store ptr %3, ptr %9, align 8, !tbaa !145
  store i32 %4, ptr %10, align 4, !tbaa !8
  call void @llvm.lifetime.start.p0(i64 4, ptr %11) #12
  store i32 60, ptr %11, align 4, !tbaa !8
  call void @llvm.lifetime.start.p0(i64 8, ptr %12) #12
  %18 = load ptr, ptr %7, align 8, !tbaa !85
  %19 = load ptr, ptr %8, align 8, !tbaa !55
  %20 = load ptr, ptr %6, align 8, !tbaa !145
  %21 = call i32 @Vec_WrdSize(ptr noundef %20)
  %22 = load ptr, ptr %9, align 8, !tbaa !145
  %23 = call ptr @Gia_ManCountNpnClasses(ptr noundef %18, ptr noundef %19, i32 noundef %21, ptr noundef %22)
  store ptr %23, ptr %12, align 8, !tbaa !55
  call void @llvm.lifetime.start.p0(i64 8, ptr %13) #12
  call void @llvm.lifetime.start.p0(i64 4, ptr %14) #12
  call void @llvm.lifetime.start.p0(i64 4, ptr %15) #12
  call void @llvm.lifetime.start.p0(i64 4, ptr %16) #12
  %24 = load ptr, ptr %12, align 8, !tbaa !55
  %25 = call i32 @Vec_IntFindMax(ptr noundef %24)
  store i32 %25, ptr %16, align 4, !tbaa !8
  store i32 0, ptr %14, align 4, !tbaa !8
  br label %26

26:                                               ; preds = %75, %5
  %27 = load i32, ptr %14, align 4, !tbaa !8
  %28 = load ptr, ptr %6, align 8, !tbaa !145
  %29 = call i32 @Vec_WrdSize(ptr noundef %28)
  %30 = icmp slt i32 %27, %29
  br i1 %30, label %31, label %35

31:                                               ; preds = %26
  %32 = load ptr, ptr %6, align 8, !tbaa !145
  %33 = load i32, ptr %14, align 4, !tbaa !8
  %34 = call i64 @Vec_WrdEntry(ptr noundef %32, i32 noundef %33)
  store i64 %34, ptr %13, align 8, !tbaa !61
  br label %35

35:                                               ; preds = %31, %26
  %36 = phi i1 [ false, %26 ], [ true, %31 ]
  br i1 %36, label %37, label %78

37:                                               ; preds = %35
  call void @llvm.lifetime.start.p0(i64 4, ptr %17) #12
  %38 = load i32, ptr %11, align 4, !tbaa !8
  %39 = load ptr, ptr %12, align 8, !tbaa !55
  %40 = load i32, ptr %14, align 4, !tbaa !8
  %41 = call i32 @Vec_IntEntry(ptr noundef %39, i32 noundef %40)
  %42 = mul nsw i32 %38, %41
  %43 = load i32, ptr %16, align 4, !tbaa !8
  %44 = call i32 @Abc_MaxInt(i32 noundef %43, i32 noundef 1)
  %45 = sdiv i32 %42, %44
  store i32 %45, ptr %17, align 4, !tbaa !8
  %46 = load i32, ptr %14, align 4, !tbaa !8
  %47 = call i32 (ptr, ...) @printf(ptr noundef @.str.34, i32 noundef %46)
  %48 = load ptr, ptr %12, align 8, !tbaa !55
  %49 = load i32, ptr %14, align 4, !tbaa !8
  %50 = call i32 @Vec_IntEntry(ptr noundef %48, i32 noundef %49)
  %51 = call i32 (ptr, ...) @printf(ptr noundef @.str.35, i32 noundef %50)
  store i32 0, ptr %15, align 4, !tbaa !8
  br label %52

52:                                               ; preds = %58, %37
  %53 = load i32, ptr %15, align 4, !tbaa !8
  %54 = load i32, ptr %17, align 4, !tbaa !8
  %55 = icmp slt i32 %53, %54
  br i1 %55, label %56, label %61

56:                                               ; preds = %52
  %57 = call i32 (ptr, ...) @printf(ptr noundef @.str.36)
  br label %58

58:                                               ; preds = %56
  %59 = load i32, ptr %15, align 4, !tbaa !8
  %60 = add nsw i32 %59, 1
  store i32 %60, ptr %15, align 4, !tbaa !8
  br label %52, !llvm.loop !204

61:                                               ; preds = %52
  %62 = load i32, ptr %17, align 4, !tbaa !8
  store i32 %62, ptr %15, align 4, !tbaa !8
  br label %63

63:                                               ; preds = %70, %61
  %64 = load i32, ptr %15, align 4, !tbaa !8
  %65 = load i32, ptr %11, align 4, !tbaa !8
  %66 = add nsw i32 %65, 3
  %67 = icmp slt i32 %64, %66
  br i1 %67, label %68, label %73

68:                                               ; preds = %63
  %69 = call i32 (ptr, ...) @printf(ptr noundef @.str.37)
  br label %70

70:                                               ; preds = %68
  %71 = load i32, ptr %15, align 4, !tbaa !8
  %72 = add nsw i32 %71, 1
  store i32 %72, ptr %15, align 4, !tbaa !8
  br label %63, !llvm.loop !205

73:                                               ; preds = %63
  %74 = load i32, ptr %10, align 4, !tbaa !8
  call void @Dau_DsdPrintFromTruth(ptr noundef %13, i32 noundef %74)
  call void @llvm.lifetime.end.p0(i64 4, ptr %17) #12
  br label %75

75:                                               ; preds = %73
  %76 = load i32, ptr %14, align 4, !tbaa !8
  %77 = add nsw i32 %76, 1
  store i32 %77, ptr %14, align 4, !tbaa !8
  br label %26, !llvm.loop !206

78:                                               ; preds = %35
  %79 = load ptr, ptr %12, align 8, !tbaa !55
  call void @Vec_IntFree(ptr noundef %79)
  call void @llvm.lifetime.end.p0(i64 4, ptr %16) #12
  call void @llvm.lifetime.end.p0(i64 4, ptr %15) #12
  call void @llvm.lifetime.end.p0(i64 4, ptr %14) #12
  call void @llvm.lifetime.end.p0(i64 8, ptr %13) #12
  call void @llvm.lifetime.end.p0(i64 8, ptr %12) #12
  call void @llvm.lifetime.end.p0(i64 4, ptr %11) #12
  ret void
}