; Function Attrs: nounwind uwtable
define void @Gia_ManMatchProfileFunctions(ptr noundef readonly captures(none) %0, ptr noundef readonly captures(none) %1, ptr noundef readonly captures(none) %2, ptr noundef readonly captures(none) %3, i32 noundef %4) local_unnamed_addr #0 {
  %6 = alloca i64, align 8
  %7 = getelementptr i8, ptr %0, i64 4
  %.val30 = load i32, ptr %7, align 4, !tbaa !165
  %8 = tail call ptr @Gia_ManCountNpnClasses(ptr noundef %1, ptr noundef %2, i32 noundef %.val30, ptr noundef %3)
  call void @llvm.lifetime.start.p0(i64 8, ptr nonnull %6) #26
  %9 = getelementptr inbounds nuw i8, ptr %8, i64 4
  %10 = load i32, ptr %9, align 4, !tbaa !89
  %11 = icmp eq i32 %10, 0
  br i1 %11, label %Vec_IntFindMax.exit, label %12

12:                                               ; preds = %5
  %13 = getelementptr inbounds nuw i8, ptr %8, i64 8
  %14 = load ptr, ptr %13, align 8, !tbaa !36
  %15 = load i32, ptr %14, align 4, !tbaa !37
  %16 = icmp sgt i32 %10, 1
  br i1 %16, label %.lr.ph.preheader.i, label %Vec_IntFindMax.exit

.lr.ph.preheader.i:                               ; preds = %12
  %wide.trip.count.i = zext nneg i32 %10 to i64
  br label %.lr.ph.i

.lr.ph.i:                                         ; preds = %.lr.ph.i, %.lr.ph.preheader.i
  %indvars.iv.i = phi i64 [ 1, %.lr.ph.preheader.i ], [ %indvars.iv.next.i, %.lr.ph.i ]
  %.015.i = phi i32 [ %15, %.lr.ph.preheader.i ], [ %spec.select.i, %.lr.ph.i ]
  %17 = getelementptr inbounds nuw i32, ptr %14, i64 %indvars.iv.i
  %18 = load i32, ptr %17, align 4, !tbaa !37
  %spec.select.i = tail call i32 @llvm.smax.i32(i32 %.015.i, i32 %18)
  %indvars.iv.next.i = add nuw nsw i64 %indvars.iv.i, 1
  %exitcond.not.i = icmp eq i64 %indvars.iv.next.i, %wide.trip.count.i
  br i1 %exitcond.not.i, label %Vec_IntFindMax.exit, label %.lr.ph.i, !llvm.loop !214

Vec_IntFindMax.exit:                              ; preds = %.lr.ph.i, %5, %12
  %.012.i = phi i32 [ 0, %5 ], [ %15, %12 ], [ %spec.select.i, %.lr.ph.i ]
  %.val2935 = load i32, ptr %7, align 4, !tbaa !165
  %19 = icmp sgt i32 %.val2935, 0
  br i1 %19, label %.lr.ph37, label %Vec_IntFindMax.exit..critedge_crit_edge

Vec_IntFindMax.exit..critedge_crit_edge:          ; preds = %Vec_IntFindMax.exit
  %.phi.trans.insert = getelementptr inbounds nuw i8, ptr %8, i64 8
  %.pre = load ptr, ptr %.phi.trans.insert, align 8, !tbaa !36
  br label %.critedge

.lr.ph37:                                         ; preds = %Vec_IntFindMax.exit
  %20 = getelementptr i8, ptr %0, i64 8
  %21 = getelementptr i8, ptr %8, i64 8
  %.val28 = load ptr, ptr %21, align 8, !tbaa !36
  %22 = tail call noundef i32 @llvm.smax.i32(i32 %.012.i, i32 1)
  br label %23

23:                                               ; preds = %.lr.ph37, %._crit_edge
  %indvars.iv = phi i64 [ 0, %.lr.ph37 ], [ %indvars.iv.next, %._crit_edge ]
  %.val31 = load ptr, ptr %20, align 8, !tbaa !162
  %24 = getelementptr inbounds nuw i64, ptr %.val31, i64 %indvars.iv
  %25 = load i64, ptr %24, align 8, !tbaa !70
  store i64 %25, ptr %6, align 8, !tbaa !70
  %26 = getelementptr inbounds nuw i32, ptr %.val28, i64 %indvars.iv
  %27 = load i32, ptr %26, align 4, !tbaa !37
  %28 = mul nsw i32 %27, 60
  %29 = sdiv i32 %28, %22
  %30 = trunc nuw nsw i64 %indvars.iv to i32
  %31 = call i32 (ptr, ...) @printf(ptr noundef nonnull dereferenceable(1) @.str.34, i32 noundef %30)
  %32 = load i32, ptr %26, align 4, !tbaa !37
  %33 = call i32 (ptr, ...) @printf(ptr noundef nonnull dereferenceable(1) @.str.35, i32 noundef %32)
  %34 = icmp sgt i32 %29, 0
  br i1 %34, label %.lr.ph, label %.lr.ph34.preheader

.preheader:                                       ; preds = %.lr.ph
  %35 = icmp slt i32 %29, 63
  br i1 %35, label %.lr.ph34.preheader, label %._crit_edge

.lr.ph34.preheader:                               ; preds = %23, %.preheader
  br label %.lr.ph34

.lr.ph:                                           ; preds = %23, %.lr.ph
  %.02532 = phi i32 [ %36, %.lr.ph ], [ 0, %23 ]
  %putchar27 = call i32 @putchar(i32 42)
  %36 = add nuw nsw i32 %.02532, 1
  %exitcond.not = icmp eq i32 %36, %29
  br i1 %exitcond.not, label %.preheader, label %.lr.ph, !llvm.loop !215

.lr.ph34:                                         ; preds = %.lr.ph34.preheader, %.lr.ph34
  %.133 = phi i32 [ %37, %.lr.ph34 ], [ %29, %.lr.ph34.preheader ]
  %putchar = call i32 @putchar(i32 32)
  %37 = add i32 %.133, 1
  %exitcond38.not = icmp eq i32 %37, 63
  br i1 %exitcond38.not, label %._crit_edge, label %.lr.ph34, !llvm.loop !216

._crit_edge:                                      ; preds = %.lr.ph34, %.preheader
  call void @Dau_DsdPrintFromTruth(ptr noundef nonnull %6, i32 noundef %4) #26
  %indvars.iv.next = add nuw nsw i64 %indvars.iv, 1
  %.val29 = load i32, ptr %7, align 4, !tbaa !165
  %38 = sext i32 %.val29 to i64
  %39 = icmp slt i64 %indvars.iv.next, %38
  br i1 %39, label %23, label %.critedge, !llvm.loop !217

.critedge:                                        ; preds = %._crit_edge, %Vec_IntFindMax.exit..critedge_crit_edge
  %40 = phi ptr [ %.pre, %Vec_IntFindMax.exit..critedge_crit_edge ], [ %.val28, %._crit_edge ]
  %.not.i = icmp eq ptr %40, null
  br i1 %.not.i, label %Vec_IntFree.exit, label %41

41:                                               ; preds = %.critedge
  call void @free(ptr noundef nonnull %40) #26
  br label %Vec_IntFree.exit

Vec_IntFree.exit:                                 ; preds = %.critedge, %41
  call void @free(ptr noundef nonnull %8) #26
  call void @llvm.lifetime.end.p0(i64 8, ptr nonnull %6) #26
  ret void
}